; Function Attrs: mustprogress nounwind uwtable
define hidden void @_ZN6Assimp19Discreet3DSImporterC2Ev(ptr noundef nonnull align 8 dereferenceable(162) %this) unnamed_addr #0 align 2 {
entry:
  tail call void @_ZN6Assimp12BaseImporterC2Ev(ptr noundef nonnull align 8 dereferenceable(72) %this) #22
  store ptr getelementptr inbounds ({ [8 x ptr] }, ptr @_ZTVN6Assimp19Discreet3DSImporterE, i64 0, i32 0, i64 2), ptr %this, align 8
  %stream = getelementptr inbounds i8, ptr %this, i64 72
  store ptr null, ptr %stream, align 8
  %mLastNodeIndex = getelementptr inbounds i8, ptr %this, i64 80
  store i16 0, ptr %mLastNodeIndex, align 8
  %mCurrentNode = getelementptr inbounds i8, ptr %this, i64 88
  %mBackgroundImage = getelementptr inbounds i8, ptr %this, i64 128
  tail call void @llvm.memset.p0.i64(ptr noundef nonnull align 8 dereferenceable(40) %mCurrentNode, i8 0, i64 40, i1 false)
  tail call void @_ZNSt7__cxx1112basic_stringIcSt11char_traitsIcESaIcEEC1Ev(ptr noundef nonnull align 8 dereferenceable(32) %mBackgroundImage) #22
  %bHasBG = getelementptr inbounds i8, ptr %this, i64 160
  store i8 0, ptr %bHasBG, align 8
  %bIsPrj = getelementptr inbounds i8, ptr %this, i64 161
  store i8 0, ptr %bIsPrj, align 1
  ret void
}